Certificate:
    Data:
        Version: 3 (0x2)
        Serial Number: 1 (0x1)
        Signature Algorithm: sha1WithRSAEncryption
        Issuer: C=US, ST=California, O=Stanford University, CN=stanfordca
        Validity
            Not Before: Apr 20 03:56:40 2010 GMT
            Not After : Apr 20 03:56:40 2011 GMT
        Subject: C=US, ST=California, L=Stanford, O=Stanford, CN=stanfordam
        Subject Public Key Info:
            Public Key Algorithm: rsaEncryption
            RSA Public Key: (1024 bit)
                Modulus (1024 bit):
                    00:cf:c8:73:f9:01:8e:61:d9:38:da:6b:c4:04:9b:
                    11:6d:d8:c4:6a:64:56:bb:2d:67:ba:2a:dc:c7:9f:
                    38:87:db:e5:a6:fb:7b:14:e6:f0:c3:db:bd:f5:c4:
                    d4:cb:91:84:ba:74:f5:ee:ad:c0:7c:75:cf:5b:cb:
                    40:2d:88:cf:63:e7:85:67:8b:50:9b:26:5c:04:b4:
                    e8:be:3d:ca:65:9a:e3:23:23:ae:f1:c0:f3:4a:ff:
                    74:86:ce:48:58:44:e8:6c:e4:bb:3e:6e:89:28:7f:
                    c4:54:a6:ff:30:2a:1e:88:da:8f:ef:3b:b7:32:6f:
                    91:80:b7:c7:12:c2:5b:46:1d
                Exponent: 65537 (0x10001)
        X509v3 extensions:
            X509v3 Basic Constraints: 
                CA:FALSE
            Netscape Comment: 
                OpenSSL Generated Certificate
            X509v3 Subject Key Identifier: 
                34:8E:95:BF:41:E6:9D:32:41:D0:D1:99:A3:F2:CB:0E:8B:AE:39:8B
            X509v3 Authority Key Identifier: 
                keyid:A6:D1:F1:B5:1D:87:48:79:1C:A8:F7:F3:44:60:AB:DD:B1:B5:D4:49

    Signature Algorithm: sha1WithRSAEncryption
        9d:d5:85:42:cc:c7:6b:1b:95:67:35:e8:24:c8:6e:a4:1e:63:
        86:b9:f5:60:35:32:e2:54:7f:34:f3:3f:ec:9f:c2:3f:93:49:
        ee:6b:f8:eb:24:10:0b:37:3a:61:af:e0:74:8a:eb:86:b4:5d:
        f6:44:78:f0:7d:1e:7b:15:7c:9e:98:eb:c3:d2:75:9b:0a:93:
        4a:67:da:8b:77:4d:05:bf:6c:1e:fe:23:9c:0a:a5:1e:4f:21:
        0f:05:3c:f8:37:67:f8:2a:17:a4:66:78:3e:72:7f:5f:ef:c7:
        f4:da:11:9f:db:05:7c:55:15:ed:ec:a0:60:a4:94:7a:ec:ef:
        0f:85
-----BEGIN CERTIFICATE-----
MIICozCCAgygAwIBAgIBATANBgkqhkiG9w0BAQUFADBVMQswCQYDVQQGEwJVUzET
MBEGA1UECBMKQ2FsaWZvcm5pYTEcMBoGA1UEChMTU3RhbmZvcmQgVW5pdmVyc2l0
eTETMBEGA1UEAxMKc3RhbmZvcmRjYTAeFw0xMDA0MjAwMzU2NDBaFw0xMTA0MjAw
MzU2NDBaMF0xCzAJBgNVBAYTAlVTMRMwEQYDVQQIEwpDYWxpZm9ybmlhMREwDwYD
VQQHEwhTdGFuZm9yZDERMA8GA1UEChMIU3RhbmZvcmQxEzARBgNVBAMTCnN0YW5m
b3JkYW0wgZ8wDQYJKoZIhvcNAQEBBQADgY0AMIGJAoGBAM/Ic/kBjmHZONprxASb
EW3YxGpkVrstZ7oq3MefOIfb5ab7exTm8MPbvfXE1MuRhLp09e6twHx1z1vLQC2I
z2PnhWeLUJsmXAS06L49ymWa4yMjrvHA80r/dIbOSFhE6Gzkuz5uiSh/xFSm/zAq
Hojaj+87tzJvkYC3xxLCW0YdAgMBAAGjezB5MAkGA1UdEwQCMAAwLAYJYIZIAYb4
QgENBB8WHU9wZW5TU0wgR2VuZXJhdGVkIENlcnRpZmljYXRlMB0GA1UdDgQWBBQ0
jpW/QeadMkHQ0Zmj8ssOi645izAfBgNVHSMEGDAWgBSm0fG1HYdIeRyo9/NEYKvd
sbXUSTANBgkqhkiG9w0BAQUFAAOBgQCd1YVCzMdrG5VnNegkyG6kHmOGufVgNTLi
VH808z/sn8I/k0nua/jrJBALNzphr+B0iuuGtF32RHjwfR57FXyemOvD0nWbCpNK
Z9qLd00Fv2we/iOcCqUeTyEPBTz4N2f4KhekZng+cn9f78f02hGf2wV8VRXt7KBg
pJR67O8PhQ==
-----END CERTIFICATE-----
