Certificate:
    Data:
        Version: 3 (0x2)
        Serial Number: 2 (0x2)
        Signature Algorithm: sha1WithRSAEncryption
        Issuer: C=US, ST=California, O=Stanford University, CN=stanfordca
        Validity
            Not Before: Apr 20 04:00:05 2010 GMT
            Not After : Apr 20 04:00:05 2011 GMT
        Subject: C=US, ST=Some-State, O=Internet Widgits Pty Ltd, CN=alice
        Subject Public Key Info:
            Public Key Algorithm: rsaEncryption
            RSA Public Key: (1024 bit)
                Modulus (1024 bit):
                    00:d8:ed:ab:04:69:9e:2d:21:15:6d:3a:fe:f1:91:
                    64:00:17:3c:98:6d:6a:70:c3:44:3d:fc:f2:38:52:
                    ef:fe:d8:ff:5f:ad:0a:3f:20:c5:f8:ae:ff:7b:2a:
                    66:1a:f3:fe:86:8c:68:77:b6:66:e6:a3:22:d7:41:
                    d9:22:9d:cd:94:20:99:b6:a9:97:5f:be:4c:e5:09:
                    9e:cd:2e:d0:29:6d:d7:ed:e3:54:02:8b:6a:8c:b8:
                    11:31:ca:f1:a0:2f:be:45:34:19:3b:15:04:57:2d:
                    b4:58:a1:4c:74:6e:4e:28:0f:ec:9c:fa:6c:1d:74:
                    a1:53:e3:e0:4b:03:7c:e0:97
                Exponent: 65537 (0x10001)
        X509v3 extensions:
            X509v3 Basic Constraints: 
                CA:FALSE
            Netscape Comment: 
                OpenSSL Generated Certificate
            X509v3 Subject Key Identifier: 
                00:21:DE:10:A3:EC:6B:82:9C:68:84:94:27:2E:9D:D8:30:39:C4:26
            X509v3 Authority Key Identifier: 
                keyid:A6:D1:F1:B5:1D:87:48:79:1C:A8:F7:F3:44:60:AB:DD:B1:B5:D4:49

    Signature Algorithm: sha1WithRSAEncryption
        2e:3e:a0:eb:ea:8d:15:f3:f4:32:1d:2a:c5:47:bd:9f:45:fc:
        b5:06:f4:b4:69:da:03:0c:45:88:44:ef:ee:3d:cf:e4:69:0b:
        a4:f3:64:36:a5:2e:a6:d4:2a:7e:05:65:5a:f5:91:0f:0c:97:
        c6:e5:f1:76:ff:c6:64:50:13:5a:dd:69:e5:08:52:be:b1:b0:
        2f:96:94:ec:86:06:2f:6c:cf:0d:f3:4e:3f:3b:5c:fa:d0:bd:
        76:e7:73:0c:c9:90:ca:e3:8f:b2:09:39:16:e6:1b:30:4a:85:
        a6:a8:9e:6b:08:72:bd:51:69:2b:9e:0e:fc:1b:4a:1d:f9:7b:
        49:0a
-----BEGIN CERTIFICATE-----
MIICmzCCAgSgAwIBAgIBAjANBgkqhkiG9w0BAQUFADBVMQswCQYDVQQGEwJVUzET
MBEGA1UECBMKQ2FsaWZvcm5pYTEcMBoGA1UEChMTU3RhbmZvcmQgVW5pdmVyc2l0
eTETMBEGA1UEAxMKc3RhbmZvcmRjYTAeFw0xMDA0MjAwNDAwMDVaFw0xMTA0MjAw
NDAwMDVaMFUxCzAJBgNVBAYTAlVTMRMwEQYDVQQIEwpTb21lLVN0YXRlMSEwHwYD
VQQKExhJbnRlcm5ldCBXaWRnaXRzIFB0eSBMdGQxDjAMBgNVBAMTBWFsaWNlMIGf
MA0GCSqGSIb3DQEBAQUAA4GNADCBiQKBgQDY7asEaZ4tIRVtOv7xkWQAFzyYbWpw
w0Q9/PI4Uu/+2P9frQo/IMX4rv97KmYa8/6GjGh3tmbmoyLXQdkinc2UIJm2qZdf
vkzlCZ7NLtApbdft41QCi2qMuBExyvGgL75FNBk7FQRXLbRYoUx0bk4oD+yc+mwd
dKFT4+BLA3zglwIDAQABo3sweTAJBgNVHRMEAjAAMCwGCWCGSAGG+EIBDQQfFh1P
cGVuU1NMIEdlbmVyYXRlZCBDZXJ0aWZpY2F0ZTAdBgNVHQ4EFgQUACHeEKPsa4Kc
aISUJy6d2DA5xCYwHwYDVR0jBBgwFoAUptHxtR2HSHkcqPfzRGCr3bG11EkwDQYJ
KoZIhvcNAQEFBQADgYEALj6g6+qNFfP0Mh0qxUe9n0X8tQb0tGnaAwxFiETv7j3P
5GkLpPNkNqUuptQqfgVlWvWRDwyXxuXxdv/GZFATWt1p5QhSvrGwL5aU7IYGL2zP
DfNOPztc+tC9dudzDMmQyuOPsgk5FuYbMEqFpqieawhyvVFpK54O/BtKHfl7SQo=
-----END CERTIFICATE-----
