Certificate:
    Data:
        Version: 3 (0x2)
        Serial Number: 0 (0x0)
        Signature Algorithm: sha1WithRSAEncryption
        Issuer: C=US, ST=California, O=Stanford University, CN=stanfordca
        Validity
            Not Before: Apr 20 03:54:49 2010 GMT
            Not After : Apr 19 03:54:49 2013 GMT
        Subject: C=US, ST=California, O=Stanford University, CN=stanfordca
        Subject Public Key Info:
            Public Key Algorithm: rsaEncryption
            RSA Public Key: (1024 bit)
                Modulus (1024 bit):
                    00:d9:8f:19:9f:af:a1:f1:b7:5f:20:0d:77:a4:4e:
                    3f:e5:bd:0b:5e:b7:f2:15:44:d8:db:ab:75:bb:08:
                    ac:66:0d:a6:61:98:27:2c:3d:fd:25:fd:04:46:58:
                    31:94:56:c9:f2:60:ab:7d:79:9b:e6:b7:f1:e4:d8:
                    cb:d9:7d:61:c5:d9:d0:7d:40:dc:30:fa:c2:d4:37:
                    66:b7:53:f8:1a:4b:20:60:7f:3d:f5:f7:61:c0:47:
                    b3:c9:38:91:78:e0:c9:21:76:d6:a2:2a:0d:4a:98:
                    74:10:3b:45:a8:f4:d8:04:78:86:2f:a8:ea:13:49:
                    67:d2:3b:f6:10:2f:15:97:f9
                Exponent: 65537 (0x10001)
        X509v3 extensions:
            X509v3 Basic Constraints: 
                CA:FALSE
            Netscape Comment: 
                OpenSSL Generated Certificate
            X509v3 Subject Key Identifier: 
                A6:D1:F1:B5:1D:87:48:79:1C:A8:F7:F3:44:60:AB:DD:B1:B5:D4:49
            X509v3 Authority Key Identifier: 
                keyid:A6:D1:F1:B5:1D:87:48:79:1C:A8:F7:F3:44:60:AB:DD:B1:B5:D4:49

    Signature Algorithm: sha1WithRSAEncryption
        a0:98:15:d2:b3:ad:ac:0e:19:99:39:69:dc:00:cd:f6:58:bf:
        0e:27:e0:e4:a9:9e:c8:34:56:d2:52:22:f0:02:92:ec:d1:de:
        c5:78:7f:3e:dd:4e:89:ab:84:a5:5b:52:cf:8f:7e:2c:ad:b9:
        9a:c9:c4:2e:06:df:6d:20:5a:a5:ed:10:0c:4b:05:fa:85:cb:
        d9:05:30:e9:07:bf:de:c1:14:45:22:73:b8:64:bc:bb:2e:ed:
        7e:46:f6:c8:cd:23:e6:8a:ad:9d:cf:09:f4:19:6c:6c:e9:da:
        02:34:90:16:d2:56:11:95:0b:83:f2:eb:26:25:91:29:db:ea:
        63:2a
-----BEGIN CERTIFICATE-----
MIICmzCCAgSgAwIBAgIBADANBgkqhkiG9w0BAQUFADBVMQswCQYDVQQGEwJVUzET
MBEGA1UECBMKQ2FsaWZvcm5pYTEcMBoGA1UEChMTU3RhbmZvcmQgVW5pdmVyc2l0
eTETMBEGA1UEAxMKc3RhbmZvcmRjYTAeFw0xMDA0MjAwMzU0NDlaFw0xMzA0MTkw
MzU0NDlaMFUxCzAJBgNVBAYTAlVTMRMwEQYDVQQIEwpDYWxpZm9ybmlhMRwwGgYD
VQQKExNTdGFuZm9yZCBVbml2ZXJzaXR5MRMwEQYDVQQDEwpzdGFuZm9yZGNhMIGf
MA0GCSqGSIb3DQEBAQUAA4GNADCBiQKBgQDZjxmfr6Hxt18gDXekTj/lvQtet/IV
RNjbq3W7CKxmDaZhmCcsPf0l/QRGWDGUVsnyYKt9eZvmt/Hk2MvZfWHF2dB9QNww
+sLUN2a3U/gaSyBgfz3192HAR7PJOJF44MkhdtaiKg1KmHQQO0Wo9NgEeIYvqOoT
SWfSO/YQLxWX+QIDAQABo3sweTAJBgNVHRMEAjAAMCwGCWCGSAGG+EIBDQQfFh1P
cGVuU1NMIEdlbmVyYXRlZCBDZXJ0aWZpY2F0ZTAdBgNVHQ4EFgQUptHxtR2HSHkc
qPfzRGCr3bG11EkwHwYDVR0jBBgwFoAUptHxtR2HSHkcqPfzRGCr3bG11EkwDQYJ
KoZIhvcNAQEFBQADgYEAoJgV0rOtrA4ZmTlp3ADN9li/Difg5KmeyDRW0lIi8AKS
7NHexXh/Pt1OiauEpVtSz49+LK25msnELgbfbSBape0QDEsF+oXL2QUw6Qe/3sEU
RSJzuGS8uy7tfkb2yM0j5oqtnc8J9BlsbOnaAjSQFtJWEZULg/LrJiWRKdvqYyo=
-----END CERTIFICATE-----
